target datalayout = "e-m:e-p270:32:32-p271:32:32-p272:64:64-i64:64-i128:128-f80:128-n8:16:32:64-S128"
target triple = "x86_64-pc-linux-gnu"

%struct.lxb_encoding_data = type { i32, ptr, ptr, ptr, ptr, ptr }
%struct._dom_decoding_encoding_ctx = type { i8, %struct.lxb_encoding_encode_t, %struct.lxb_encoding_decode_t, ptr, ptr, [4096 x i8], [4096 x i32] }
%struct.lxb_encoding_encode_t = type { ptr, ptr, i64, i64, ptr, i64, i32 }
%struct.lxb_encoding_decode_t = type { ptr, ptr, i64, i64, ptr, i64, i32, i32, i8, i8, i32, %union.anon.8 }
%union.anon.8 = type { %struct.lxb_encoding_ctx_2022_jp_t }
%struct.lxb_encoding_ctx_2022_jp_t = type { i8, i8, i32, i32, i8 }

; Function Attrs: nounwind uwtable
define internal i32 @lxb_encoding_decode_buf_add_to(ptr noundef %0, ptr noundef %1, i64 noundef %2) #0 {
  %4 = alloca i32, align 4
  %5 = alloca ptr, align 8
  %6 = alloca ptr, align 8
  %7 = alloca i64, align 8
  store ptr %0, ptr %5, align 8
  store ptr %1, ptr %6, align 8
  store i64 %2, ptr %7, align 8
  %8 = load ptr, ptr %5, align 8
  %9 = getelementptr inbounds %struct.lxb_encoding_decode_t, ptr %8, i32 0, i32 3
  %10 = load i64, ptr %9, align 8
  %11 = load i64, ptr %7, align 8
  %12 = add i64 %10, %11
  %13 = load ptr, ptr %5, align 8
  %14 = getelementptr inbounds %struct.lxb_encoding_decode_t, ptr %13, i32 0, i32 2
  %15 = load i64, ptr %14, align 8
  %16 = icmp ugt i64 %12, %15
  br i1 %16, label %17, label %18

17:                                               ; preds = %3
  store i32 15, ptr %4, align 4
  br label %34

18:                                               ; preds = %3
  %19 = load ptr, ptr %5, align 8
  %20 = getelementptr inbounds %struct.lxb_encoding_decode_t, ptr %19, i32 0, i32 1
  %21 = load ptr, ptr %20, align 8
  %22 = load ptr, ptr %5, align 8
  %23 = getelementptr inbounds %struct.lxb_encoding_decode_t, ptr %22, i32 0, i32 3
  %24 = load i64, ptr %23, align 8
  %25 = getelementptr inbounds i32, ptr %21, i64 %24
  %26 = load ptr, ptr %6, align 8
  %27 = load i64, ptr %7, align 8
  %28 = mul i64 4, %27
  call void @llvm.memcpy.p0.p0.i64(ptr align 4 %25, ptr align 4 %26, i64 %28, i1 false)
  %29 = load i64, ptr %7, align 8
  %30 = load ptr, ptr %5, align 8
  %31 = getelementptr inbounds %struct.lxb_encoding_decode_t, ptr %30, i32 0, i32 3
  %32 = load i64, ptr %31, align 8
  %33 = add i64 %32, %29
  store i64 %33, ptr %31, align 8
  store i32 0, ptr %4, align 4
  br label %34

34:                                               ; preds = %18, %17
  %35 = load i32, ptr %4, align 4
  ret i32 %35
}

; Function Attrs: nounwind uwtable
define internal i32 @lxb_encoding_encode_finish(ptr noundef %0) #0 {
  %2 = alloca i32, align 4
  %3 = alloca ptr, align 8
  store ptr %0, ptr %3, align 8
  %4 = load ptr, ptr %3, align 8
  %5 = getelementptr inbounds %struct.lxb_encoding_encode_t, ptr %4, i32 0, i32 0
  %6 = load ptr, ptr %5, align 8
  %7 = getelementptr inbounds %struct.lxb_encoding_data, ptr %6, i32 0, i32 0
  %8 = load i32, ptr %7, align 8
  %9 = icmp eq i32 %8, 8
  br i1 %9, label %10, label %13

10:                                               ; preds = %1
  %11 = load ptr, ptr %3, align 8
  %12 = call i32 @lxb_encoding_encode_iso_2022_jp_eof(ptr noundef %11)
  store i32 %12, ptr %2, align 4
  br label %14

13:                                               ; preds = %1
  store i32 0, ptr %2, align 4
  br label %14

14:                                               ; preds = %13, %10
  %15 = load i32, ptr %2, align 4
  ret i32 %15
}

; Function Attrs: nounwind uwtable
define internal i64 @lxb_encoding_encode_buf_used(ptr noundef %0) #0 {
  %2 = alloca ptr, align 8
  store ptr %0, ptr %2, align 8
  %3 = load ptr, ptr %2, align 8
  %4 = getelementptr inbounds %struct.lxb_encoding_encode_t, ptr %3, i32 0, i32 3
  %5 = load i64, ptr %4, align 8
  ret i64 %5
}

; Function Attrs: nounwind uwtable
define internal i64 @lxb_encoding_decode_buf_used(ptr noundef %0) #0 {
  %2 = alloca ptr, align 8
  store ptr %0, ptr %2, align 8
  %3 = load ptr, ptr %2, align 8
  %4 = getelementptr inbounds %struct.lxb_encoding_decode_t, ptr %3, i32 0, i32 3
  %5 = load i64, ptr %4, align 8
  ret i64 %5
}

; Function Attrs: nounwind uwtable
define internal i32 @lxb_encoding_decode_finish(ptr noundef %0) #0 {
  %2 = alloca i32, align 4
  %3 = alloca ptr, align 8
  %4 = alloca i32, align 4
  store ptr %0, ptr %3, align 8
  %5 = load ptr, ptr %3, align 8
  %6 = getelementptr inbounds %struct.lxb_encoding_decode_t, ptr %5, i32 0, i32 10
  %7 = load i32, ptr %6, align 4
  %8 = icmp ne i32 %7, 0
  br i1 %8, label %9, label %43

9:                                                ; preds = %1
  %10 = load ptr, ptr %3, align 8
  %11 = getelementptr inbounds %struct.lxb_encoding_decode_t, ptr %10, i32 0, i32 0
  %12 = load ptr, ptr %11, align 8
  %13 = getelementptr inbounds %struct.lxb_encoding_data, ptr %12, i32 0, i32 0
  %14 = load i32, ptr %13, align 8
  %15 = icmp eq i32 %14, 8
  br i1 %15, label %16, label %23

16:                                               ; preds = %9
  %17 = load ptr, ptr %3, align 8
  %18 = getelementptr inbounds %struct.lxb_encoding_decode_t, ptr %17, i32 0, i32 11
  %19 = getelementptr inbounds %struct.lxb_encoding_ctx_2022_jp_t, ptr %18, i32 0, i32 2
  %20 = load i32, ptr %19, align 4
  %21 = icmp eq i32 %20, 0
  br i1 %21, label %22, label %23

22:                                               ; preds = %16
  store i32 0, ptr %2, align 4
  br label %44

23:                                               ; preds = %16, %9
  %24 = load ptr, ptr %3, align 8
  %25 = getelementptr inbounds %struct.lxb_encoding_decode_t, ptr %24, i32 0, i32 4
  %26 = load ptr, ptr %25, align 8
  %27 = icmp eq ptr %26, null
  br i1 %27, label %28, label %29

28:                                               ; preds = %23
  store i32 1, ptr %2, align 4
  br label %44

29:                                               ; preds = %23
  %30 = load ptr, ptr %3, align 8
  %31 = load ptr, ptr %3, align 8
  %32 = getelementptr inbounds %struct.lxb_encoding_decode_t, ptr %31, i32 0, i32 4
  %33 = load ptr, ptr %32, align 8
  %34 = load ptr, ptr %3, align 8
  %35 = getelementptr inbounds %struct.lxb_encoding_decode_t, ptr %34, i32 0, i32 5
  %36 = load i64, ptr %35, align 8
  %37 = call i32 @lxb_encoding_decode_buf_add_to(ptr noundef %30, ptr noundef %33, i64 noundef %36)
  store i32 %37, ptr %4, align 4
  %38 = load i32, ptr %4, align 4
  %39 = icmp eq i32 %38, 15
  br i1 %39, label %40, label %42

40:                                               ; preds = %29
  %41 = load i32, ptr %4, align 4
  store i32 %41, ptr %2, align 4
  br label %44

42:                                               ; preds = %29
  br label %43

43:                                               ; preds = %42, %1
  store i32 0, ptr %2, align 4
  br label %44

44:                                               ; preds = %43, %40, %28, %22
  %45 = load i32, ptr %2, align 4
  ret i32 %45
}

; Function Attrs: nounwind uwtable
define internal zeroext i1 @dom_parse_decode_encode_finish(ptr noundef %0, ptr noundef %1, ptr noundef %2, ptr noundef %3, ptr noundef %4, ptr noundef %5) #0 {
  %7 = alloca i1, align 1
  %8 = alloca ptr, align 8
  %9 = alloca ptr, align 8
  %10 = alloca ptr, align 8
  %11 = alloca ptr, align 8
  %12 = alloca ptr, align 8
  %13 = alloca ptr, align 8
  %14 = alloca i64, align 8
  %15 = alloca ptr, align 8
  %16 = alloca ptr, align 8
  store ptr %0, ptr %8, align 8
  store ptr %1, ptr %9, align 8
  store ptr %2, ptr %10, align 8
  store ptr %3, ptr %11, align 8
  store ptr %4, ptr %12, align 8
  store ptr %5, ptr %13, align 8
  %17 = load ptr, ptr %11, align 8
  %18 = getelementptr inbounds %struct._dom_decoding_encoding_ctx, ptr %17, i32 0, i32 0
  %19 = load i8, ptr %18, align 8
  %20 = trunc i8 %19 to i1
  br i1 %20, label %62, label %21

21:                                               ; preds = %6
  %22 = load ptr, ptr %11, align 8
  %23 = getelementptr inbounds %struct._dom_decoding_encoding_ctx, ptr %22, i32 0, i32 2
  %24 = call i32 @lxb_encoding_decode_finish(ptr noundef %23)
  %25 = load ptr, ptr %11, align 8
  %26 = getelementptr inbounds %struct._dom_decoding_encoding_ctx, ptr %25, i32 0, i32 2
  %27 = call i64 @lxb_encoding_decode_buf_used(ptr noundef %26)
  store i64 %27, ptr %14, align 8
  %28 = load i64, ptr %14, align 8
  %29 = icmp ugt i64 %28, 0
  br i1 %29, label %30, label %61

30:                                               ; preds = %21
  %31 = load ptr, ptr %11, align 8
  %32 = getelementptr inbounds %struct._dom_decoding_encoding_ctx, ptr %31, i32 0, i32 6
  %33 = getelementptr inbounds [4096 x i32], ptr %32, i64 0, i64 0
  store ptr %33, ptr %15, align 8
  %34 = load ptr, ptr %15, align 8
  %35 = load i64, ptr %14, align 8
  %36 = getelementptr inbounds i32, ptr %34, i64 %35
  store ptr %36, ptr %16, align 8
  %37 = load ptr, ptr %11, align 8
  %38 = getelementptr inbounds %struct._dom_decoding_encoding_ctx, ptr %37, i32 0, i32 3
  %39 = load ptr, ptr %38, align 8
  %40 = getelementptr inbounds %struct.lxb_encoding_data, ptr %39, i32 0, i32 1
  %41 = load ptr, ptr %40, align 8
  %42 = load ptr, ptr %11, align 8
  %43 = getelementptr inbounds %struct._dom_decoding_encoding_ctx, ptr %42, i32 0, i32 1
  %44 = load ptr, ptr %16, align 8
  %45 = call i32 %41(ptr noundef %43, ptr noundef %15, ptr noundef %44)
  %46 = load ptr, ptr %8, align 8
  %47 = load ptr, ptr %9, align 8
  %48 = load ptr, ptr %10, align 8
  %49 = load ptr, ptr %11, align 8
  %50 = getelementptr inbounds %struct._dom_decoding_encoding_ctx, ptr %49, i32 0, i32 1
  %51 = call i64 @lxb_encoding_encode_buf_used(ptr noundef %50)
  %52 = load ptr, ptr %11, align 8
  %53 = getelementptr inbounds %struct._dom_decoding_encoding_ctx, ptr %52, i32 0, i32 5
  %54 = getelementptr inbounds [4096 x i8], ptr %53, i64 0, i64 0
  %55 = load i64, ptr %14, align 8
  %56 = load ptr, ptr %12, align 8
  %57 = load ptr, ptr %13, align 8
  %58 = call zeroext i1 @dom_process_parse_chunk(ptr noundef %46, ptr noundef %47, ptr noundef %48, i64 noundef %51, ptr noundef %54, i64 noundef %55, ptr noundef %56, ptr noundef %57)
  br i1 %58, label %60, label %59

59:                                               ; preds = %30
  store i1 false, ptr %7, align 1
  br label %88

60:                                               ; preds = %30
  br label %61

61:                                               ; preds = %60, %21
  br label %62

62:                                               ; preds = %61, %6
  %63 = load ptr, ptr %11, align 8
  %64 = getelementptr inbounds %struct._dom_decoding_encoding_ctx, ptr %63, i32 0, i32 1
  %65 = call i32 @lxb_encoding_encode_finish(ptr noundef %64)
  %66 = load ptr, ptr %11, align 8
  %67 = getelementptr inbounds %struct._dom_decoding_encoding_ctx, ptr %66, i32 0, i32 1
  %68 = call i64 @lxb_encoding_encode_buf_used(ptr noundef %67)
  %69 = icmp ne i64 %68, 0
  br i1 %69, label %70, label %87

70:                                               ; preds = %62
  %71 = load ptr, ptr %8, align 8
  %72 = load ptr, ptr %9, align 8
  %73 = load ptr, ptr %10, align 8
  %74 = load ptr, ptr %11, align 8
  %75 = getelementptr inbounds %struct._dom_decoding_encoding_ctx, ptr %74, i32 0, i32 1
  %76 = call i64 @lxb_encoding_encode_buf_used(ptr noundef %75)
  %77 = load ptr, ptr %11, align 8
  %78 = getelementptr inbounds %struct._dom_decoding_encoding_ctx, ptr %77, i32 0, i32 5
  %79 = getelementptr inbounds [4096 x i8], ptr %78, i64 0, i64 0
  %80 = load ptr, ptr %11, align 8
  %81 = getelementptr inbounds %struct._dom_decoding_encoding_ctx, ptr %80, i32 0, i32 2
  %82 = call i64 @lxb_encoding_decode_buf_used(ptr noundef %81)
  %83 = load ptr, ptr %12, align 8
  %84 = load ptr, ptr %13, align 8
  %85 = call zeroext i1 @dom_process_parse_chunk(ptr noundef %71, ptr noundef %72, ptr noundef %73, i64 noundef %76, ptr noundef %79, i64 noundef %82, ptr noundef %83, ptr noundef %84)
  br i1 %85, label %87, label %86

86:                                               ; preds = %70
  store i1 false, ptr %7, align 1
  br label %88

87:                                               ; preds = %70, %62
  store i1 true, ptr %7, align 1
  br label %88

88:                                               ; preds = %87, %86, %59
  %89 = load i1, ptr %7, align 1
  ret i1 %89
}