; Function Attrs: nounwind uwtable
define internal fastcc noundef zeroext i1 @dom_parse_decode_encode_finish(ptr noundef %0, ptr noundef %1, ptr noundef %2, ptr noundef %3, ptr noundef %4, ptr noundef %5) unnamed_addr #0 {
  %7 = alloca ptr, align 8
  %8 = load i8, ptr %3, align 8
  %9 = and i8 %8, 1
  %.not = icmp eq i8 %9, 0
  br i1 %.not, label %10, label %54

10:                                               ; preds = %6
  %11 = getelementptr inbounds i8, ptr %3, i64 124
  %12 = load i32, ptr %11, align 4
  %.not.i = icmp eq i32 %12, 0
  br i1 %.not.i, label %lxb_encoding_decode_finish.exit, label %13

13:                                               ; preds = %10
  %14 = getelementptr inbounds i8, ptr %3, i64 64
  %15 = load ptr, ptr %14, align 8
  %16 = load i32, ptr %15, align 8
  %17 = icmp eq i32 %16, 8
  br i1 %17, label %18, label %22

18:                                               ; preds = %13
  %19 = getelementptr inbounds i8, ptr %3, i64 132
  %20 = load i32, ptr %19, align 4
  %21 = icmp eq i32 %20, 0
  br i1 %21, label %lxb_encoding_decode_finish.exit, label %22

22:                                               ; preds = %18, %13
  %23 = getelementptr inbounds i8, ptr %3, i64 96
  %24 = load ptr, ptr %23, align 8
  %25 = icmp eq ptr %24, null
  br i1 %25, label %lxb_encoding_decode_finish.exit, label %26

26:                                               ; preds = %22
  %27 = getelementptr inbounds i8, ptr %3, i64 104
  %28 = load i64, ptr %27, align 8
  %29 = getelementptr inbounds i8, ptr %3, i64 88
  %30 = load i64, ptr %29, align 8
  %31 = add i64 %30, %28
  %32 = getelementptr inbounds i8, ptr %3, i64 80
  %33 = load i64, ptr %32, align 8
  %34 = icmp ugt i64 %31, %33
  br i1 %34, label %lxb_encoding_decode_finish.exit, label %lxb_encoding_decode_buf_add_to.exit.i

lxb_encoding_decode_buf_add_to.exit.i:            ; preds = %26
  %35 = getelementptr inbounds i8, ptr %3, i64 72
  %36 = load ptr, ptr %35, align 8
  %37 = getelementptr inbounds i32, ptr %36, i64 %30
  %38 = shl i64 %28, 2
  tail call void @llvm.memcpy.p0.p0.i64(ptr align 4 %37, ptr nonnull align 4 %24, i64 %38, i1 false)
  %39 = load i64, ptr %29, align 8
  %40 = add i64 %39, %28
  store i64 %40, ptr %29, align 8
  br label %lxb_encoding_decode_finish.exit

lxb_encoding_decode_finish.exit:                  ; preds = %10, %18, %22, %26, %lxb_encoding_decode_buf_add_to.exit.i
  %41 = getelementptr i8, ptr %3, i64 88
  %.val = load i64, ptr %41, align 8
  %.not28 = icmp eq i64 %.val, 0
  br i1 %.not28, label %54, label %42

42:                                               ; preds = %lxb_encoding_decode_finish.exit
  %43 = getelementptr inbounds i8, ptr %3, i64 4256
  store ptr %43, ptr %7, align 8
  %44 = getelementptr inbounds i32, ptr %43, i64 %.val
  %45 = getelementptr inbounds i8, ptr %3, i64 144
  %46 = load ptr, ptr %45, align 8
  %47 = getelementptr inbounds i8, ptr %46, i64 8
  %48 = load ptr, ptr %47, align 8
  %49 = getelementptr inbounds i8, ptr %3, i64 8
  %50 = call i32 %48(ptr noundef nonnull %49, ptr noundef nonnull %7, ptr noundef nonnull %44) #11
  %51 = getelementptr i8, ptr %3, i64 32
  %.val31 = load i64, ptr %51, align 8
  %52 = getelementptr inbounds i8, ptr %3, i64 160
  %53 = call fastcc zeroext i1 @dom_process_parse_chunk(ptr noundef %0, ptr noundef %1, ptr noundef %2, i64 noundef %.val31, ptr noundef nonnull %52, i64 noundef %.val, ptr noundef %4, ptr noundef %5)
  br i1 %53, label %54, label %67

54:                                               ; preds = %lxb_encoding_decode_finish.exit, %42, %6
  %55 = getelementptr inbounds i8, ptr %3, i64 8
  %56 = load ptr, ptr %55, align 8
  %57 = load i32, ptr %56, align 8
  %58 = icmp eq i32 %57, 8
  br i1 %58, label %59, label %lxb_encoding_encode_finish.exit

59:                                               ; preds = %54
  %60 = call i32 @lxb_encoding_encode_iso_2022_jp_eof(ptr noundef nonnull %55) #11
  br label %lxb_encoding_encode_finish.exit

lxb_encoding_encode_finish.exit:                  ; preds = %54, %59
  %61 = getelementptr i8, ptr %3, i64 32
  %.val32 = load i64, ptr %61, align 8
  %.not29 = icmp eq i64 %.val32, 0
  br i1 %.not29, label %66, label %62

62:                                               ; preds = %lxb_encoding_encode_finish.exit
  %63 = getelementptr inbounds i8, ptr %3, i64 160
  %64 = getelementptr i8, ptr %3, i64 88
  %.val30 = load i64, ptr %64, align 8
  %65 = call fastcc zeroext i1 @dom_process_parse_chunk(ptr noundef %0, ptr noundef %1, ptr noundef %2, i64 noundef %.val32, ptr noundef nonnull %63, i64 noundef %.val30, ptr noundef %4, ptr noundef %5)
  br i1 %65, label %66, label %67

66:                                               ; preds = %62, %lxb_encoding_encode_finish.exit
  br label %67

67:                                               ; preds = %62, %42, %66
  %.0 = phi i1 [ true, %66 ], [ false, %42 ], [ false, %62 ]
  ret i1 %.0
}